#include <math.h>
#include <stdio.h>
#include <stdlib.h>
#include <string.h>


void main()
{
	int n,k,i,m,sum;
	scanf("%d%d",&n,&k);

	m=n-1;
	for(i=1;;)
	{
		sum=i;
		while((n*sum+k)%(n-1)==0)
		{
			sum=(n*sum+k)/(n-1);
			m--;
			if(m==0)
				break;
		}
		if(m!=0)
		{
			i++;
			m=n-1;
		}
		else
			break;
	}
	printf("%d",n*sum+k);
}


