; ModuleID = '54/1330.c'
source_filename = "54/1330.c"
target datalayout = "e-m:e-p270:32:32-p271:32:32-p272:64:64-i64:64-f80:128-n8:16:32:64-S128"
target triple = "x86_64-pc-linux-gnu"

@.str = private unnamed_addr constant [5 x i8] c"%d%d\00", align 1
@.str.1 = private unnamed_addr constant [3 x i8] c"%d\00", align 1

; Function Attrs: noinline nounwind uwtable
define dso_local void @main() #0 {
  %1 = alloca i32, align 4
  %2 = alloca i32, align 4
  %3 = alloca i32, align 4
  %4 = alloca i32, align 4
  %5 = alloca i32, align 4
  %6 = call i32 (i8*, ...) @__isoc99_scanf(i8* getelementptr inbounds ([5 x i8], [5 x i8]* @.str, i64 0, i64 0), i32* %1, i32* %2)
  %7 = load i32, i32* %1, align 4
  %8 = sub nsw i32 %7, 1
  store i32 %8, i32* %4, align 4
  store i32 1, i32* %3, align 4
  br label %9

9:                                                ; preds = %45, %0
  %10 = load i32, i32* %3, align 4
  store i32 %10, i32* %5, align 4
  br label %11

11:                                               ; preds = %35, %9
  %12 = load i32, i32* %1, align 4
  %13 = load i32, i32* %5, align 4
  %14 = mul nsw i32 %12, %13
  %15 = load i32, i32* %2, align 4
  %16 = add nsw i32 %14, %15
  %17 = load i32, i32* %1, align 4
  %18 = sub nsw i32 %17, 1
  %19 = srem i32 %16, %18
  %20 = icmp eq i32 %19, 0
  br i1 %20, label %21, label %36

21:                                               ; preds = %11
  %22 = load i32, i32* %1, align 4
  %23 = load i32, i32* %5, align 4
  %24 = mul nsw i32 %22, %23
  %25 = load i32, i32* %2, align 4
  %26 = add nsw i32 %24, %25
  %27 = load i32, i32* %1, align 4
  %28 = sub nsw i32 %27, 1
  %29 = sdiv i32 %26, %28
  store i32 %29, i32* %5, align 4
  %30 = load i32, i32* %4, align 4
  %31 = add nsw i32 %30, -1
  store i32 %31, i32* %4, align 4
  %32 = load i32, i32* %4, align 4
  %33 = icmp eq i32 %32, 0
  br i1 %33, label %34, label %35

34:                                               ; preds = %21
  br label %36

35:                                               ; preds = %21
  br label %11

36:                                               ; preds = %34, %11
  %37 = load i32, i32* %4, align 4
  %38 = icmp ne i32 %37, 0
  br i1 %38, label %39, label %44

39:                                               ; preds = %36
  %40 = load i32, i32* %3, align 4
  %41 = add nsw i32 %40, 1
  store i32 %41, i32* %3, align 4
  %42 = load i32, i32* %1, align 4
  %43 = sub nsw i32 %42, 1
  store i32 %43, i32* %4, align 4
  br label %45

44:                                               ; preds = %36
  br label %46

45:                                               ; preds = %39
  br label %9

46:                                               ; preds = %44
  %47 = load i32, i32* %1, align 4
  %48 = load i32, i32* %5, align 4
  %49 = mul nsw i32 %47, %48
  %50 = load i32, i32* %2, align 4
  %51 = add nsw i32 %49, %50
  %52 = call i32 (i8*, ...) @printf(i8* getelementptr inbounds ([3 x i8], [3 x i8]* @.str.1, i64 0, i64 0), i32 %51)
  ret void
}

declare dso_local i32 @__isoc99_scanf(i8*, ...) #1

declare dso_local i32 @printf(i8*, ...) #1


!llvm.module.flags = !{!0}
!llvm.ident = !{!1}

!0 = !{i32 1, !"wchar_size", i32 4}
!1 = !{!"clang version 10.0.0-4ubuntu1 "}
