; ModuleID = 'source-C-CXX/53/1330.c'
source_filename = "source-C-CXX/53/1330.c"
target datalayout = "e-m:e-p270:32:32-p271:32:32-p272:64:64-i64:64-f80:128-n8:16:32:64-S128"
target triple = "x86_64-pc-linux-gnu"

@.str = private unnamed_addr constant [5 x i8] c"%d%d\00", align 1
@.str.1 = private unnamed_addr constant [3 x i8] c"%d\00", align 1

; Function Attrs: nofree nounwind sspstrong uwtable
define dso_local void @main() local_unnamed_addr #0 {
  %1 = alloca i32, align 4
  %2 = alloca i32, align 4
  %3 = bitcast i32* %1 to i8*
  call void @llvm.lifetime.start.p0i8(i64 4, i8* nonnull %3) #3
  %4 = bitcast i32* %2 to i8*
  call void @llvm.lifetime.start.p0i8(i64 4, i8* nonnull %4) #3
  %5 = call i32 (i8*, ...) @__isoc99_scanf(i8* getelementptr inbounds ([5 x i8], [5 x i8]* @.str, i64 0, i64 0), i32* nonnull %1, i32* nonnull %2)
  %6 = load i32, i32* %1, align 4, !tbaa !5
  %7 = add nsw i32 %6, -1
  %8 = load i32, i32* %2, align 4, !tbaa !5
  br label %9

9:                                                ; preds = %22, %0
  %10 = phi i32 [ 1, %0 ], [ %24, %22 ]
  br label %11

11:                                               ; preds = %19, %9
  %12 = phi i32 [ %7, %9 ], [ %20, %19 ]
  %13 = phi i32 [ %10, %9 ], [ %17, %19 ]
  %14 = mul nsw i32 %13, %6
  %15 = add nsw i32 %14, %8
  %16 = srem i32 %15, %7
  %17 = sdiv i32 %15, %7
  %18 = icmp eq i32 %16, 0
  br i1 %18, label %19, label %22

19:                                               ; preds = %11
  %20 = add nsw i32 %12, -1
  %21 = icmp eq i32 %20, 0
  br i1 %21, label %25, label %11, !llvm.loop !9

22:                                               ; preds = %11
  %23 = icmp eq i32 %12, 0
  %24 = add nuw nsw i32 %10, 1
  br i1 %23, label %28, label %9

25:                                               ; preds = %19
  %26 = mul nsw i32 %17, %6
  %27 = add nsw i32 %26, %8
  br label %28

28:                                               ; preds = %22, %25
  %29 = phi i32 [ %27, %25 ], [ %15, %22 ]
  %30 = call i32 (i8*, ...) @printf(i8* nonnull dereferenceable(1) getelementptr inbounds ([3 x i8], [3 x i8]* @.str.1, i64 0, i64 0), i32 %29)
  call void @llvm.lifetime.end.p0i8(i64 4, i8* nonnull %4) #3
  call void @llvm.lifetime.end.p0i8(i64 4, i8* nonnull %3) #3
  ret void
}

; Function Attrs: argmemonly mustprogress nofree nosync nounwind willreturn
declare void @llvm.lifetime.start.p0i8(i64 immarg, i8* nocapture) #1

; Function Attrs: nofree nounwind
declare noundef i32 @__isoc99_scanf(i8* nocapture noundef readonly, ...) local_unnamed_addr #2

; Function Attrs: nofree nounwind
declare noundef i32 @printf(i8* nocapture noundef readonly, ...) local_unnamed_addr #2

; Function Attrs: argmemonly mustprogress nofree nosync nounwind willreturn
declare void @llvm.lifetime.end.p0i8(i64 immarg, i8* nocapture) #1


!llvm.module.flags = !{!0, !1, !2, !3}
!llvm.ident = !{!4}

!0 = !{i32 1, !"wchar_size", i32 4}
!1 = !{i32 7, !"PIC Level", i32 2}
!2 = !{i32 7, !"PIE Level", i32 2}
!3 = !{i32 7, !"uwtable", i32 1}
!4 = !{!"clang version 13.0.0"}
!5 = !{!6, !6, i64 0}
!6 = !{!"int", !7, i64 0}
!7 = !{!"omnipotent char", !8, i64 0}
!8 = !{!"Simple C/C++ TBAA"}
!9 = distinct !{!9, !10}
!10 = !{!"llvm.loop.mustprogress"}
